target datalayout = "e-m:e-p270:32:32-p271:32:32-p272:64:64-i64:64-i128:128-f80:128-n8:16:32:64-S128"
target triple = "x86_64-pc-linux-gnu"

%struct.FT_ListRec_ = type { ptr, ptr }
%struct.FT_CharMapRec_ = type { ptr, i32, i16, i16 }
%struct.T1_FaceRec_ = type { %struct.FT_FaceRec_, %struct.T1_FontRec_, ptr, ptr, ptr, [2 x %struct.FT_CharMapRec_], [2 x ptr], ptr, i32, i32, i32, ptr, ptr }
%struct.FT_FaceRec_ = type { i64, i64, i64, i64, i64, ptr, ptr, i32, ptr, i32, ptr, %struct.FT_Generic_, %struct.FT_BBox_, i16, i16, i16, i16, i16, i16, i16, i16, ptr, ptr, ptr, ptr, ptr, ptr, %struct.FT_ListRec_, %struct.FT_Generic_, ptr, ptr }
%struct.FT_BBox_ = type { i64, i64, i64, i64 }
%struct.FT_Generic_ = type { ptr, ptr }
%struct.T1_FontRec_ = type { %struct.PS_FontInfoRec_, %struct.PS_FontExtraRec_, %struct.PS_PrivateRec_, ptr, i32, %struct.T1_EncodingRecRec_, ptr, ptr, ptr, i32, ptr, ptr, ptr, i32, ptr, ptr, ptr, i8, i8, %struct.FT_Matrix_, %struct.FT_Vector_, %struct.FT_BBox_, i64, i64 }
%struct.PS_FontInfoRec_ = type { ptr, ptr, ptr, ptr, ptr, i64, i8, i16, i16 }
%struct.PS_FontExtraRec_ = type { i16 }
%struct.PS_PrivateRec_ = type { i32, i32, i8, i8, i8, i8, [14 x i16], [10 x i16], [14 x i16], [10 x i16], i64, i32, i32, [1 x i16], [1 x i16], i8, i8, i8, i8, [13 x i16], [13 x i16], i64, i64, i64, [2 x i16] }
%struct.T1_EncodingRecRec_ = type { i32, i32, i32, ptr, ptr }
%struct.FT_Matrix_ = type { i64, i64, i64, i64 }
%struct.FT_Vector_ = type { i64, i64 }
%struct.PS_BlendRec_ = type { i32, i32, [4 x ptr], [16 x ptr], [4 x %struct.PS_DesignMap_], ptr, ptr, [17 x ptr], [17 x ptr], i64, [17 x ptr], [16 x i32], i32 }
%struct.PS_DesignMap_ = type { i8, ptr, ptr }
%struct.FT_Multi_Master_ = type { i32, i32, [4 x %struct.FT_MM_Axis_] }
%struct.FT_MM_Axis_ = type { ptr, i64, i64 }

; Function Attrs: nounwind uwtable
define internal i32 @T1_Get_Multi_Master(ptr noundef %0, ptr noundef %1) #0 {
  %3 = alloca ptr, align 8
  %4 = alloca ptr, align 8
  %5 = alloca ptr, align 8
  %6 = alloca ptr, align 8
  %7 = alloca i32, align 4
  %8 = alloca i32, align 4
  %9 = alloca ptr, align 8
  %10 = alloca ptr, align 8
  store ptr %0, ptr %3, align 8
  store ptr %1, ptr %4, align 8
  %11 = load ptr, ptr %3, align 8
  store ptr %11, ptr %5, align 8
  %12 = load ptr, ptr %5, align 8
  %13 = getelementptr inbounds %struct.T1_FaceRec_, ptr %12, i32 0, i32 7
  %14 = load ptr, ptr %13, align 8
  store ptr %14, ptr %6, align 8
  store i32 6, ptr %8, align 4
  %15 = load ptr, ptr %6, align 8
  %16 = icmp ne ptr %15, null
  br i1 %16, label %17, label %79

17:                                               ; preds = %2
  %18 = load ptr, ptr %6, align 8
  %19 = getelementptr inbounds %struct.PS_BlendRec_, ptr %18, i32 0, i32 1
  %20 = load i32, ptr %19, align 4
  %21 = load ptr, ptr %4, align 8
  %22 = getelementptr inbounds %struct.FT_Multi_Master_, ptr %21, i32 0, i32 0
  store i32 %20, ptr %22, align 8
  %23 = load ptr, ptr %6, align 8
  %24 = getelementptr inbounds %struct.PS_BlendRec_, ptr %23, i32 0, i32 0
  %25 = load i32, ptr %24, align 8
  %26 = load ptr, ptr %4, align 8
  %27 = getelementptr inbounds %struct.FT_Multi_Master_, ptr %26, i32 0, i32 1
  store i32 %25, ptr %27, align 4
  store i32 0, ptr %7, align 4
  br label %28

28:                                               ; preds = %75, %17
  %29 = load i32, ptr %7, align 4
  %30 = load ptr, ptr %6, align 8
  %31 = getelementptr inbounds %struct.PS_BlendRec_, ptr %30, i32 0, i32 1
  %32 = load i32, ptr %31, align 4
  %33 = icmp ult i32 %29, %32
  br i1 %33, label %34, label %78

34:                                               ; preds = %28
  %35 = load ptr, ptr %4, align 8
  %36 = getelementptr inbounds %struct.FT_Multi_Master_, ptr %35, i32 0, i32 2
  %37 = getelementptr inbounds [4 x %struct.FT_MM_Axis_], ptr %36, i64 0, i64 0
  %38 = load i32, ptr %7, align 4
  %39 = zext i32 %38 to i64
  %40 = getelementptr inbounds %struct.FT_MM_Axis_, ptr %37, i64 %39
  store ptr %40, ptr %9, align 8
  %41 = load ptr, ptr %6, align 8
  %42 = getelementptr inbounds %struct.PS_BlendRec_, ptr %41, i32 0, i32 4
  %43 = getelementptr inbounds [4 x %struct.PS_DesignMap_], ptr %42, i64 0, i64 0
  %44 = load i32, ptr %7, align 4
  %45 = zext i32 %44 to i64
  %46 = getelementptr inbounds %struct.PS_DesignMap_, ptr %43, i64 %45
  store ptr %46, ptr %10, align 8
  %47 = load ptr, ptr %6, align 8
  %48 = getelementptr inbounds %struct.PS_BlendRec_, ptr %47, i32 0, i32 2
  %49 = load i32, ptr %7, align 4
  %50 = zext i32 %49 to i64
  %51 = getelementptr inbounds [4 x ptr], ptr %48, i64 0, i64 %50
  %52 = load ptr, ptr %51, align 8
  %53 = load ptr, ptr %9, align 8
  %54 = getelementptr inbounds %struct.FT_MM_Axis_, ptr %53, i32 0, i32 0
  store ptr %52, ptr %54, align 8
  %55 = load ptr, ptr %10, align 8
  %56 = getelementptr inbounds %struct.PS_DesignMap_, ptr %55, i32 0, i32 1
  %57 = load ptr, ptr %56, align 8
  %58 = getelementptr inbounds i64, ptr %57, i64 0
  %59 = load i64, ptr %58, align 8
  %60 = load ptr, ptr %9, align 8
  %61 = getelementptr inbounds %struct.FT_MM_Axis_, ptr %60, i32 0, i32 1
  store i64 %59, ptr %61, align 8
  %62 = load ptr, ptr %10, align 8
  %63 = getelementptr inbounds %struct.PS_DesignMap_, ptr %62, i32 0, i32 1
  %64 = load ptr, ptr %63, align 8
  %65 = load ptr, ptr %10, align 8
  %66 = getelementptr inbounds %struct.PS_DesignMap_, ptr %65, i32 0, i32 0
  %67 = load i8, ptr %66, align 8
  %68 = zext i8 %67 to i32
  %69 = sub nsw i32 %68, 1
  %70 = sext i32 %69 to i64
  %71 = getelementptr inbounds i64, ptr %64, i64 %70
  %72 = load i64, ptr %71, align 8
  %73 = load ptr, ptr %9, align 8
  %74 = getelementptr inbounds %struct.FT_MM_Axis_, ptr %73, i32 0, i32 2
  store i64 %72, ptr %74, align 8
  br label %75

75:                                               ; preds = %34
  %76 = load i32, ptr %7, align 4
  %77 = add i32 %76, 1
  store i32 %77, ptr %7, align 4
  br label %28, !llvm.loop !11

78:                                               ; preds = %28
  store i32 0, ptr %8, align 4
  br label %79

79:                                               ; preds = %78, %2
  %80 = load i32, ptr %8, align 4
  ret i32 %80
}