; Function Attrs: nofree norecurse nosync nounwind memory(read, argmem: readwrite, inaccessiblemem: none) uwtable
define internal range(i32 0, 7) i32 @T1_Get_Multi_Master(ptr nocapture noundef readonly %0, ptr nocapture noundef writeonly %1) #4 {
  %3 = getelementptr inbounds i8, ptr %0, i64 848
  %4 = load ptr, ptr %3, align 8
  %.not = icmp eq ptr %4, null
  br i1 %.not, label %.loopexit, label %5

5:                                                ; preds = %2
  %6 = getelementptr inbounds i8, ptr %4, i64 4
  %7 = load i32, ptr %6, align 4
  store i32 %7, ptr %1, align 8
  %8 = load i32, ptr %4, align 8
  %9 = getelementptr inbounds i8, ptr %1, i64 4
  store i32 %8, ptr %9, align 4
  %10 = load i32, ptr %6, align 4
  %.not25 = icmp eq i32 %10, 0
  br i1 %.not25, label %.loopexit, label %.lr.ph

.lr.ph:                                           ; preds = %5
  %11 = getelementptr inbounds i8, ptr %1, i64 8
  %12 = getelementptr inbounds i8, ptr %4, i64 168
  %13 = getelementptr inbounds i8, ptr %4, i64 8
  br label %14

14:                                               ; preds = %.lr.ph, %14
  %indvars.iv = phi i64 [ 0, %.lr.ph ], [ %indvars.iv.next, %14 ]
  %15 = getelementptr inbounds %struct.FT_MM_Axis_, ptr %11, i64 %indvars.iv
  %16 = getelementptr inbounds %struct.PS_DesignMap_, ptr %12, i64 %indvars.iv
  %17 = getelementptr inbounds [4 x ptr], ptr %13, i64 0, i64 %indvars.iv
  %18 = load ptr, ptr %17, align 8
  store ptr %18, ptr %15, align 8
  %19 = getelementptr inbounds i8, ptr %16, i64 8
  %20 = load ptr, ptr %19, align 8
  %21 = load i64, ptr %20, align 8
  %22 = getelementptr inbounds i8, ptr %15, i64 8
  store i64 %21, ptr %22, align 8
  %23 = load ptr, ptr %19, align 8
  %24 = load i8, ptr %16, align 8
  %25 = zext i8 %24 to i64
  %26 = getelementptr i64, ptr %23, i64 %25
  %27 = getelementptr i8, ptr %26, i64 -8
  %28 = load i64, ptr %27, align 8
  %29 = getelementptr inbounds i8, ptr %15, i64 16
  store i64 %28, ptr %29, align 8
  %indvars.iv.next = add nuw nsw i64 %indvars.iv, 1
  %30 = load i32, ptr %6, align 4
  %31 = zext i32 %30 to i64
  %32 = icmp ult i64 %indvars.iv.next, %31
  br i1 %32, label %14, label %.loopexit, !llvm.loop !17

.loopexit:                                        ; preds = %14, %5, %2
  %.022 = phi i32 [ 6, %2 ], [ 0, %5 ], [ 0, %14 ]
  ret i32 %.022
}